target datalayout = "e-m:e-p270:32:32-p271:32:32-p272:64:64-i64:64-i128:128-f80:128-n8:16:32:64-S128"
target triple = "x86_64-pc-linux-gnu"

%struct.IncrementalSortState = type { %struct.ScanState, i8, i64, i8, i64, i32, i64, ptr, ptr, ptr, %struct.IncrementalSortInfo, ptr, ptr, i8, ptr }
%struct.ScanState = type { %struct.PlanState, ptr, ptr, ptr }
%struct.PlanState = type { i32, ptr, ptr, ptr, ptr, ptr, ptr, ptr, ptr, ptr, ptr, ptr, ptr, ptr, ptr, ptr, ptr, ptr, i8, ptr, ptr, ptr, ptr, ptr, i8, i8, i8, i8, i8, i8, i8, i8 }
%struct.IncrementalSortInfo = type { %struct.IncrementalSortGroupInfo, %struct.IncrementalSortGroupInfo }
%struct.IncrementalSortGroupInfo = type { i64, i64, i64, i64, i64, i32 }

; Function Attrs: nounwind uwtable
define dso_local void @ExecEndIncrementalSort(ptr noundef %0) #0 {
  %2 = alloca ptr, align 8
  store ptr %0, ptr %2, align 8
  %3 = load ptr, ptr %2, align 8
  %4 = getelementptr inbounds nuw %struct.IncrementalSortState, ptr %3, i32 0, i32 11
  %5 = load ptr, ptr %4, align 8
  call void @ExecDropSingleTupleTableSlot(ptr noundef %5)
  %6 = load ptr, ptr %2, align 8
  %7 = getelementptr inbounds nuw %struct.IncrementalSortState, ptr %6, i32 0, i32 12
  %8 = load ptr, ptr %7, align 8
  call void @ExecDropSingleTupleTableSlot(ptr noundef %8)
  %9 = load ptr, ptr %2, align 8
  %10 = getelementptr inbounds nuw %struct.IncrementalSortState, ptr %9, i32 0, i32 7
  %11 = load ptr, ptr %10, align 8
  %12 = icmp ne ptr %11, null
  br i1 %12, label %13, label %19

13:                                               ; preds = %1
  %14 = load ptr, ptr %2, align 8
  %15 = getelementptr inbounds nuw %struct.IncrementalSortState, ptr %14, i32 0, i32 7
  %16 = load ptr, ptr %15, align 8
  call void @tuplesort_end(ptr noundef %16)
  %17 = load ptr, ptr %2, align 8
  %18 = getelementptr inbounds nuw %struct.IncrementalSortState, ptr %17, i32 0, i32 7
  store ptr null, ptr %18, align 8
  br label %19

19:                                               ; preds = %13, %1
  %20 = load ptr, ptr %2, align 8
  %21 = getelementptr inbounds nuw %struct.IncrementalSortState, ptr %20, i32 0, i32 8
  %22 = load ptr, ptr %21, align 8
  %23 = icmp ne ptr %22, null
  br i1 %23, label %24, label %30

24:                                               ; preds = %19
  %25 = load ptr, ptr %2, align 8
  %26 = getelementptr inbounds nuw %struct.IncrementalSortState, ptr %25, i32 0, i32 8
  %27 = load ptr, ptr %26, align 8
  call void @tuplesort_end(ptr noundef %27)
  %28 = load ptr, ptr %2, align 8
  %29 = getelementptr inbounds nuw %struct.IncrementalSortState, ptr %28, i32 0, i32 8
  store ptr null, ptr %29, align 8
  br label %30

30:                                               ; preds = %24, %19
  %31 = load ptr, ptr %2, align 8
  %32 = getelementptr inbounds nuw %struct.PlanState, ptr %31, i32 0, i32 9
  %33 = load ptr, ptr %32, align 8
  call void @ExecEndNode(ptr noundef %33)
  ret void
}