; Function Attrs: nounwind uwtable
define dso_local void @ExecEndIncrementalSort(ptr noundef captures(none) %0) local_unnamed_addr #0 {
  %2 = getelementptr inbounds nuw i8, ptr %0, i64 392
  %3 = load ptr, ptr %2, align 8
  tail call void @ExecDropSingleTupleTableSlot(ptr noundef %3) #8
  %4 = getelementptr inbounds nuw i8, ptr %0, i64 400
  %5 = load ptr, ptr %4, align 8
  tail call void @ExecDropSingleTupleTableSlot(ptr noundef %5) #8
  %6 = getelementptr inbounds nuw i8, ptr %0, i64 272
  %7 = load ptr, ptr %6, align 8
  %.not = icmp eq ptr %7, null
  br i1 %.not, label %9, label %8

8:                                                ; preds = %1
  tail call void @tuplesort_end(ptr noundef nonnull %7) #8
  store ptr null, ptr %6, align 8
  br label %9

9:                                                ; preds = %8, %1
  %10 = getelementptr inbounds nuw i8, ptr %0, i64 280
  %11 = load ptr, ptr %10, align 8
  %.not10 = icmp eq ptr %11, null
  br i1 %.not10, label %13, label %12

12:                                               ; preds = %9
  tail call void @tuplesort_end(ptr noundef nonnull %11) #8
  store ptr null, ptr %10, align 8
  br label %13

13:                                               ; preds = %12, %9
  %14 = getelementptr inbounds nuw i8, ptr %0, i64 72
  %15 = load ptr, ptr %14, align 8
  tail call void @ExecEndNode(ptr noundef %15) #8
  ret void
}